target datalayout = "e-m:e-p270:32:32-p271:32:32-p272:64:64-i64:64-i128:128-f80:128-n8:16:32:64-S128"
target triple = "x86_64-pc-linux-gnu"

; Function Attrs: nounwind uwtable
define internal void @add_zeros_and_len_padding(ptr noundef %0, i64 noundef %1, i64 noundef %2) #0 {
  %4 = alloca ptr, align 8
  %5 = alloca i64, align 8
  %6 = alloca i64, align 8
  %7 = alloca i64, align 8
  %8 = alloca i8, align 1
  store ptr %0, ptr %4, align 8, !tbaa !18
  store i64 %1, ptr %5, align 8, !tbaa !43
  store i64 %2, ptr %6, align 8, !tbaa !43
  call void @llvm.lifetime.start.p0(i64 8, ptr %7) #7
  %9 = load i64, ptr %5, align 8, !tbaa !43
  %10 = load i64, ptr %6, align 8, !tbaa !43
  %11 = sub i64 %9, %10
  store i64 %11, ptr %7, align 8, !tbaa !43
  call void @llvm.lifetime.start.p0(i64 1, ptr %8) #7
  store i8 0, ptr %8, align 1, !tbaa !57
  store i8 1, ptr %8, align 1, !tbaa !57
  br label %12

12:                                               ; preds = %25, %3
  %13 = load i8, ptr %8, align 1, !tbaa !57
  %14 = zext i8 %13 to i64
  %15 = load i64, ptr %7, align 8, !tbaa !43
  %16 = icmp ult i64 %14, %15
  br i1 %16, label %17, label %28

17:                                               ; preds = %12
  %18 = load ptr, ptr %4, align 8, !tbaa !18
  %19 = load i64, ptr %6, align 8, !tbaa !43
  %20 = load i8, ptr %8, align 1, !tbaa !57
  %21 = zext i8 %20 to i64
  %22 = add i64 %19, %21
  %23 = sub i64 %22, 1
  %24 = getelementptr inbounds nuw i8, ptr %18, i64 %23
  store i8 0, ptr %24, align 1, !tbaa !57
  br label %25

25:                                               ; preds = %17
  %26 = load i8, ptr %8, align 1, !tbaa !57
  %27 = add i8 %26, 1
  store i8 %27, ptr %8, align 1, !tbaa !57
  br label %12, !llvm.loop !62

28:                                               ; preds = %12
  %29 = load i64, ptr %7, align 8, !tbaa !43
  %30 = trunc i64 %29 to i8
  %31 = load ptr, ptr %4, align 8, !tbaa !18
  %32 = load i64, ptr %5, align 8, !tbaa !43
  %33 = sub i64 %32, 1
  %34 = getelementptr inbounds nuw i8, ptr %31, i64 %33
  store i8 %30, ptr %34, align 1, !tbaa !57
  call void @llvm.lifetime.end.p0(i64 1, ptr %8) #7
  call void @llvm.lifetime.end.p0(i64 8, ptr %7) #7
  ret void
}