; Function Attrs: nofree norecurse nosync nounwind memory(argmem: write) uwtable
define internal void @add_zeros_and_len_padding(ptr noundef writeonly captures(none) %0, i64 noundef %1, i64 noundef %2) #13 {
  %4 = sub i64 %1, %2
  %5 = icmp ugt i64 %4, 1
  br i1 %5, label %.lr.ph, label %._crit_edge

.lr.ph:                                           ; preds = %3
  %6 = getelementptr i8, ptr %0, i64 %2
  %invariant.gep = getelementptr i8, ptr %6, i64 -1
  br label %7

7:                                                ; preds = %.lr.ph, %7
  %8 = phi i64 [ 1, %.lr.ph ], [ %10, %7 ]
  %.012 = phi i8 [ 1, %.lr.ph ], [ %9, %7 ]
  %gep = getelementptr i8, ptr %invariant.gep, i64 %8
  store i8 0, ptr %gep, align 1, !tbaa !47
  %9 = add i8 %.012, 1
  %10 = zext i8 %9 to i64
  %11 = icmp ugt i64 %4, %10
  br i1 %11, label %7, label %._crit_edge, !llvm.loop !56

._crit_edge:                                      ; preds = %7, %3
  %12 = trunc nuw i64 %4 to i8
  %13 = getelementptr i8, ptr %0, i64 %1
  %14 = getelementptr i8, ptr %13, i64 -1
  store i8 %12, ptr %14, align 1, !tbaa !47
  ret void
}